target datalayout = "e-m:e-p270:32:32-p271:32:32-p272:64:64-i64:64-i128:128-f80:128-n8:16:32:64-S128"
target triple = "x86_64-pc-linux-gnu"

%class.G1HeapRegion = type { ptr, ptr, ptr, ptr, ptr, ptr, i32, %class.G1HeapRegionType, ptr, i32, ptr, ptr, ptr, i64, i32, ptr, i32, i32, i64 }
%class.G1HeapRegionType = type { i32 }

; Function Attrs: mustprogress nounwind uwtable
define linkonce_odr hidden noundef i64 @_Z13pointer_deltaPVKvS0_m(ptr noundef %0, ptr noundef %1, i64 noundef %2) #1 comdat {
  %4 = alloca ptr, align 8
  %5 = alloca ptr, align 8
  %6 = alloca i64, align 8
  store ptr %0, ptr %4, align 8
  store ptr %1, ptr %5, align 8
  store i64 %2, ptr %6, align 8
  %7 = load ptr, ptr %4, align 8
  %8 = ptrtoint ptr %7 to i64
  %9 = load ptr, ptr %5, align 8
  %10 = ptrtoint ptr %9 to i64
  %11 = sub i64 %8, %10
  %12 = load i64, ptr %6, align 8
  %13 = udiv i64 %11, %12
  ret i64 %13
}

; Function Attrs: mustprogress nounwind uwtable
define linkonce_odr hidden noundef i64 @_Z9byte_sizePvS_(ptr noundef %0, ptr noundef %1) #1 comdat {
  %3 = alloca ptr, align 8
  %4 = alloca ptr, align 8
  store ptr %0, ptr %3, align 8
  store ptr %1, ptr %4, align 8
  %5 = load ptr, ptr %4, align 8
  %6 = load ptr, ptr %3, align 8
  %7 = call noundef i64 @_Z13pointer_deltaPVKvS0_m(ptr noundef %5, ptr noundef %6, i64 noundef 1)
  ret i64 %7
}

; Function Attrs: mustprogress nounwind uwtable
define linkonce_odr hidden noundef ptr @_ZNK12G1HeapRegion3topEv(ptr noundef nonnull align 8 dereferenceable(136) %0) #1 comdat align 2 {
  %2 = alloca ptr, align 8
  store ptr %0, ptr %2, align 8
  %3 = load ptr, ptr %2, align 8
  %4 = getelementptr inbounds %class.G1HeapRegion, ptr %3, i32 0, i32 2
  %5 = load volatile ptr, ptr %4, align 8
  ret ptr %5
}

; Function Attrs: mustprogress nounwind uwtable
define linkonce_odr hidden void @_ZN16G1HeapRegionType3setENS_3TagE(ptr noundef nonnull align 4 dereferenceable(4) %0, i32 noundef %1) #1 comdat align 2 {
  %3 = alloca ptr, align 8
  %4 = alloca i32, align 4
  store ptr %0, ptr %3, align 8
  store i32 %1, ptr %4, align 4
  %5 = load ptr, ptr %3, align 8
  %6 = load i32, ptr %4, align 4
  %7 = getelementptr inbounds %class.G1HeapRegionType, ptr %5, i32 0, i32 0
  store volatile i32 %6, ptr %7, align 4
  ret void
}

; Function Attrs: mustprogress nounwind uwtable
define linkonce_odr hidden noundef i64 @_ZNK12G1HeapRegion4usedEv(ptr noundef nonnull align 8 dereferenceable(136) %0) #1 comdat align 2 {
  %2 = alloca ptr, align 8
  store ptr %0, ptr %2, align 8
  %3 = load ptr, ptr %2, align 8
  %4 = call noundef ptr @_ZNK12G1HeapRegion6bottomEv(ptr noundef nonnull align 8 dereferenceable(136) %3)
  %5 = call noundef ptr @_ZNK12G1HeapRegion3topEv(ptr noundef nonnull align 8 dereferenceable(136) %3)
  %6 = call noundef i64 @_Z9byte_sizePvS_(ptr noundef %4, ptr noundef %5)
  ret i64 %6
}

; Function Attrs: mustprogress nounwind uwtable
define linkonce_odr hidden noundef ptr @_ZNK12G1HeapRegion6bottomEv(ptr noundef nonnull align 8 dereferenceable(136) %0) #1 comdat align 2 {
  %2 = alloca ptr, align 8
  store ptr %0, ptr %2, align 8
  %3 = load ptr, ptr %2, align 8
  %4 = getelementptr inbounds %class.G1HeapRegion, ptr %3, i32 0, i32 0
  %5 = load ptr, ptr %4, align 8
  ret ptr %5
}

; Function Attrs: mustprogress nounwind uwtable
define linkonce_odr hidden noundef i32 @_ZN12G1HeapRegion14get_trace_typeEv(ptr noundef nonnull align 8 dereferenceable(136) %0) #1 comdat align 2 {
  %2 = alloca ptr, align 8
  store ptr %0, ptr %2, align 8
  %3 = load ptr, ptr %2, align 8
  %4 = getelementptr inbounds %class.G1HeapRegion, ptr %3, i32 0, i32 7
  %5 = call noundef i32 @_ZN16G1HeapRegionType14get_trace_typeEv(ptr noundef nonnull align 4 dereferenceable(4) %4)
  ret i32 %5
}

; Function Attrs: mustprogress nounwind uwtable
define linkonce_odr hidden void @_ZN16G1HeapRegionType7set_oldEv(ptr noundef nonnull align 4 dereferenceable(4) %0) #1 comdat align 2 {
  %2 = alloca ptr, align 8
  store ptr %0, ptr %2, align 8
  %3 = load ptr, ptr %2, align 8
  call void @_ZN16G1HeapRegionType3setENS_3TagE(ptr noundef nonnull align 4 dereferenceable(4) %3, i32 noundef 8)
  ret void
}

; Function Attrs: mustprogress nounwind uwtable
define hidden void @_ZN12G1HeapRegion25report_region_type_changeEN21G1HeapRegionTraceType4TypeE(ptr noundef nonnull align 8 dereferenceable(136) %0, i32 noundef %1) #1 align 2 {
  %3 = alloca ptr, align 8
  %4 = alloca i32, align 4
  store ptr %0, ptr %3, align 8
  store i32 %1, ptr %4, align 4
  %5 = load ptr, ptr %3, align 8
  %6 = getelementptr inbounds %class.G1HeapRegion, ptr %5, i32 0, i32 6
  %7 = load i32, ptr %6, align 8
  %8 = call noundef i32 @_ZN12G1HeapRegion14get_trace_typeEv(ptr noundef nonnull align 8 dereferenceable(136) %5)
  %9 = load i32, ptr %4, align 4
  %10 = call noundef ptr @_ZNK12G1HeapRegion6bottomEv(ptr noundef nonnull align 8 dereferenceable(136) %5)
  %11 = ptrtoint ptr %10 to i64
  %12 = call noundef i64 @_ZNK12G1HeapRegion4usedEv(ptr noundef nonnull align 8 dereferenceable(136) %5)
  call void @_ZN18G1HeapRegionTracer23send_region_type_changeEjN21G1HeapRegionTraceType4TypeES1_mm(i32 noundef %7, i32 noundef %8, i32 noundef %9, i64 noundef %11, i64 noundef %12)
  ret void
}

; Function Attrs: mustprogress nounwind uwtable
define hidden void @_ZN12G1HeapRegion7set_oldEv(ptr noundef nonnull align 8 dereferenceable(136) %0) #1 align 2 {
  %2 = alloca ptr, align 8
  store ptr %0, ptr %2, align 8
  %3 = load ptr, ptr %2, align 8
  call void @_ZN12G1HeapRegion25report_region_type_changeEN21G1HeapRegionTraceType4TypeE(ptr noundef nonnull align 8 dereferenceable(136) %3, i32 noundef 5)
  %4 = getelementptr inbounds %class.G1HeapRegion, ptr %3, i32 0, i32 7
  call void @_ZN16G1HeapRegionType7set_oldEv(ptr noundef nonnull align 4 dereferenceable(4) %4)
  ret void
}